; Function Attrs: mustprogress nounwind uwtable
define internal void @_ZN4node9inspector12_GLOBAL__N_128AnotherThreadObjectReferenceINS1_22MainThreadSessionStateEE5ApplyISt10unique_ptrINS0_24InspectorSessionDelegateESt14default_deleteIS7_EEEEvPS3_MS3_FvT_ERSC_(ptr noundef %target, i64 %fn.coerce0, i64 %fn.coerce1, ptr nocapture noundef nonnull align 8 dereferenceable(8) %argument) #3 align 2 {
entry:
  %agg.tmp = alloca %"class.std::unique_ptr.331", align 8
  %0 = getelementptr inbounds i8, ptr %target, i64 %fn.coerce1
  %1 = and i64 %fn.coerce0, 1
  %memptr.isvirtual.not = icmp eq i64 %1, 0
  br i1 %memptr.isvirtual.not, label %memptr.nonvirtual, label %memptr.virtual

memptr.virtual:                                   ; preds = %entry
  %vtable = load ptr, ptr %0, align 8
  %2 = getelementptr i8, ptr %vtable, i64 %fn.coerce0
  %3 = getelementptr i8, ptr %2, i64 -1
  %memptr.virtualfn = load ptr, ptr %3, align 8, !nosanitize !54
  br label %memptr.end

memptr.nonvirtual:                                ; preds = %entry
  %memptr.nonvirtualfn = inttoptr i64 %fn.coerce0 to ptr
  br label %memptr.end

memptr.end:                                       ; preds = %memptr.nonvirtual, %memptr.virtual
  %4 = phi ptr [ %memptr.virtualfn, %memptr.virtual ], [ %memptr.nonvirtualfn, %memptr.nonvirtual ]
  %5 = load i64, ptr %argument, align 8
  store i64 %5, ptr %agg.tmp, align 8
  store ptr null, ptr %argument, align 8
  call void %4(ptr noundef nonnull align 8 dereferenceable(24) %0, ptr noundef nonnull %agg.tmp) #20
  %6 = load ptr, ptr %agg.tmp, align 8
  %cmp.not.i = icmp eq ptr %6, null
  br i1 %cmp.not.i, label %_ZNSt10unique_ptrIN4node9inspector24InspectorSessionDelegateESt14default_deleteIS2_EED2Ev.exit, label %_ZNKSt14default_deleteIN4node9inspector24InspectorSessionDelegateEEclEPS2_.exit.i

_ZNKSt14default_deleteIN4node9inspector24InspectorSessionDelegateEEclEPS2_.exit.i: ; preds = %memptr.end
  %vtable.i.i = load ptr, ptr %6, align 8
  %vfn.i.i = getelementptr inbounds i8, ptr %vtable.i.i, i64 8
  %7 = load ptr, ptr %vfn.i.i, align 8
  call void %7(ptr noundef nonnull align 8 dereferenceable(8) %6) #20
  br label %_ZNSt10unique_ptrIN4node9inspector24InspectorSessionDelegateESt14default_deleteIS2_EED2Ev.exit

_ZNSt10unique_ptrIN4node9inspector24InspectorSessionDelegateESt14default_deleteIS2_EED2Ev.exit: ; preds = %memptr.end, %_ZNKSt14default_deleteIN4node9inspector24InspectorSessionDelegateEEclEPS2_.exit.i
  ret void
}